target datalayout = "e-m:e-p270:32:32-p271:32:32-p272:64:64-i64:64-i128:128-f80:128-n8:16:32:64-S128"
target triple = "x86_64-unknown-linux-gnu"

%class.symbol = type { ptr }
%struct.builtin_name = type { i32, %class.symbol }
%class.vector.78 = type { ptr }

@.str = private unnamed_addr constant [9 x i8] c"case-def\00", align 1
@.str.7 = private unnamed_addr constant [18 x i8] c"recfun-num-rounds\00", align 1

; Function Attrs: mustprogress uwtable
define linkonce_odr hidden noundef nonnull align 8 dereferenceable(8) ptr @_ZN6vectorI12builtin_nameLb0EjE9push_backEOS0_(ptr noundef nonnull align 8 dereferenceable(8) %this, ptr noundef nonnull align 8 dereferenceable(16) %elem) #4 comdat align 2 {
entry:
  %this.addr = alloca ptr, align 8
  %elem.addr = alloca ptr, align 8
  store ptr %this, ptr %this.addr, align 8
  store ptr %elem, ptr %elem.addr, align 8
  %this1 = load ptr, ptr %this.addr, align 8
  %m_data = getelementptr inbounds %class.vector.78, ptr %this1, i32 0, i32 0
  %0 = load ptr, ptr %m_data, align 8
  %cmp = icmp eq ptr %0, null
  br i1 %cmp, label %if.then, label %lor.lhs.false

lor.lhs.false:                                    ; preds = %entry
  %m_data2 = getelementptr inbounds %class.vector.78, ptr %this1, i32 0, i32 0
  %1 = load ptr, ptr %m_data2, align 8
  %arrayidx = getelementptr inbounds i32, ptr %1, i64 -1
  %2 = load i32, ptr %arrayidx, align 4
  %m_data3 = getelementptr inbounds %class.vector.78, ptr %this1, i32 0, i32 0
  %3 = load ptr, ptr %m_data3, align 8
  %arrayidx4 = getelementptr inbounds i32, ptr %3, i64 -2
  %4 = load i32, ptr %arrayidx4, align 4
  %cmp5 = icmp eq i32 %2, %4
  br i1 %cmp5, label %if.then, label %if.end

if.then:                                          ; preds = %lor.lhs.false, %entry
  call void @_ZN6vectorI12builtin_nameLb0EjE13expand_vectorEv(ptr noundef nonnull align 8 dereferenceable(8) %this1)
  br label %if.end

if.end:                                           ; preds = %if.then, %lor.lhs.false
  %m_data6 = getelementptr inbounds %class.vector.78, ptr %this1, i32 0, i32 0
  %5 = load ptr, ptr %m_data6, align 8
  %m_data7 = getelementptr inbounds %class.vector.78, ptr %this1, i32 0, i32 0
  %6 = load ptr, ptr %m_data7, align 8
  %arrayidx8 = getelementptr inbounds i32, ptr %6, i64 -1
  %7 = load i32, ptr %arrayidx8, align 4
  %idx.ext = zext i32 %7 to i64
  %add.ptr = getelementptr inbounds %struct.builtin_name, ptr %5, i64 %idx.ext
  %8 = load ptr, ptr %elem.addr, align 8
  call void @llvm.memcpy.p0.p0.i64(ptr align 8 %add.ptr, ptr align 8 %8, i64 16, i1 false)
  %m_data9 = getelementptr inbounds %class.vector.78, ptr %this1, i32 0, i32 0
  %9 = load ptr, ptr %m_data9, align 8
  %arrayidx10 = getelementptr inbounds i32, ptr %9, i64 -1
  %10 = load i32, ptr %arrayidx10, align 4
  %inc = add i32 %10, 1
  store i32 %inc, ptr %arrayidx10, align 4
  ret ptr %this1
}

; Function Attrs: mustprogress uwtable
define linkonce_odr hidden void @_ZN12builtin_nameC2EPKci(ptr noundef nonnull align 8 dereferenceable(16) %this, ptr noundef %name, i32 noundef %k) unnamed_addr #4 comdat align 2 {
entry:
  %this.addr = alloca ptr, align 8
  %name.addr = alloca ptr, align 8
  %k.addr = alloca i32, align 4
  store ptr %this, ptr %this.addr, align 8
  store ptr %name, ptr %name.addr, align 8
  store i32 %k, ptr %k.addr, align 4
  %this1 = load ptr, ptr %this.addr, align 8
  %m_kind = getelementptr inbounds %struct.builtin_name, ptr %this1, i32 0, i32 0
  %0 = load i32, ptr %k.addr, align 4
  store i32 %0, ptr %m_kind, align 8
  %m_name = getelementptr inbounds %struct.builtin_name, ptr %this1, i32 0, i32 1
  %1 = load ptr, ptr %name.addr, align 8
  call void @_ZN6symbolC1EPKc(ptr noundef nonnull align 8 dereferenceable(8) %m_name, ptr noundef %1)
  ret void
}

; Function Attrs: mustprogress uwtable
define hidden void @_ZN6recfun4decl6plugin12get_op_namesER7svectorI12builtin_namejERK6symbol(ptr noundef nonnull align 8 dereferenceable(81) %this, ptr noundef nonnull align 8 dereferenceable(8) %op_names, ptr noundef nonnull align 8 dereferenceable(8) %logic) unnamed_addr #4 align 2 {
entry:
  %this.addr = alloca ptr, align 8
  %op_names.addr = alloca ptr, align 8
  %logic.addr = alloca ptr, align 8
  %ref.tmp = alloca %struct.builtin_name, align 8
  %ref.tmp2 = alloca %struct.builtin_name, align 8
  store ptr %this, ptr %this.addr, align 8
  store ptr %op_names, ptr %op_names.addr, align 8
  store ptr %logic, ptr %logic.addr, align 8
  %0 = load ptr, ptr %op_names.addr, align 8
  call void @_ZN12builtin_nameC2EPKci(ptr noundef nonnull align 8 dereferenceable(16) %ref.tmp, ptr noundef @.str, i32 noundef 1)
  %call = call noundef nonnull align 8 dereferenceable(8) ptr @_ZN6vectorI12builtin_nameLb0EjE9push_backEOS0_(ptr noundef nonnull align 8 dereferenceable(8) %0, ptr noundef nonnull align 8 dereferenceable(16) %ref.tmp)
  %1 = load ptr, ptr %op_names.addr, align 8
  call void @_ZN12builtin_nameC2EPKci(ptr noundef nonnull align 8 dereferenceable(16) %ref.tmp2, ptr noundef @.str.7, i32 noundef 2)
  %call3 = call noundef nonnull align 8 dereferenceable(8) ptr @_ZN6vectorI12builtin_nameLb0EjE9push_backEOS0_(ptr noundef nonnull align 8 dereferenceable(8) %1, ptr noundef nonnull align 8 dereferenceable(16) %ref.tmp2)
  ret void
}